target datalayout = "e-m:e-p270:32:32-p271:32:32-p272:64:64-i64:64-i128:128-f80:128-n8:16:32:64-S128"
target triple = "x86_64-pc-linux-gnu"

%"class.arrow::Status" = type { ptr }
%"class.arrow::(anonymous namespace)::ScalarEqualsVisitor" = type <{ ptr, %"class.arrow::EqualOptions", i8, i8, [6 x i8] }>
%"class.arrow::EqualOptions" = type { double, i8, i8, ptr }
%"class.std::enable_shared_from_this" = type { %"class.std::weak_ptr" }
%"class.std::weak_ptr" = type { %"class.std::__weak_ptr" }
%"class.std::__weak_ptr" = type { ptr, %"class.std::__weak_count" }
%"class.std::__weak_count" = type { ptr }
%"class.std::shared_ptr.7" = type { %"class.std::__shared_ptr.8" }
%"class.std::__shared_ptr.8" = type { ptr, %"class.std::__shared_count" }
%"class.std::__shared_count" = type { ptr }
%"struct.arrow::Scalar.base" = type <{ ptr, %"class.std::enable_shared_from_this", %"class.std::shared_ptr.7", i8 }>
%"class.std::vector.327" = type { %"struct.std::_Vector_base.328" }
%"struct.std::_Vector_base.328" = type { %"struct.std::_Vector_base<std::shared_ptr<arrow::Scalar>, std::allocator<std::shared_ptr<arrow::Scalar>>>::_Vector_impl" }
%"struct.std::_Vector_base<std::shared_ptr<arrow::Scalar>, std::allocator<std::shared_ptr<arrow::Scalar>>>::_Vector_impl" = type { %"struct.std::_Vector_base<std::shared_ptr<arrow::Scalar>, std::allocator<std::shared_ptr<arrow::Scalar>>>::_Vector_impl_data" }
%"struct.std::_Vector_base<std::shared_ptr<arrow::Scalar>, std::allocator<std::shared_ptr<arrow::Scalar>>>::_Vector_impl_data" = type { ptr, ptr, ptr }
%"struct.arrow::SparseUnionScalar" = type <{ %"struct.arrow::UnionScalar.base", [6 x i8], %"struct.arrow::internal::ArraySpanFillFromScalarScratchSpace.332", %"class.std::vector.327", i32, [4 x i8] }>
%"struct.arrow::UnionScalar.base" = type { %"struct.arrow::Scalar.base", i8 }
%"struct.arrow::internal::ArraySpanFillFromScalarScratchSpace.332" = type { [16 x i8] }
%"class.std::shared_ptr.334" = type { %"class.std::__shared_ptr.335" }
%"class.std::__shared_ptr.335" = type { ptr, %"class.std::__shared_count" }

; Function Attrs: mustprogress nounwind uwtable
define linkonce_odr noundef ptr @_ZNKSt12__shared_ptrIN5arrow6ScalarELN9__gnu_cxx12_Lock_policyE2EE3getEv(ptr noundef nonnull align 8 dereferenceable(16) %0) #0 comdat align 2 {
  %2 = alloca ptr, align 8
  store ptr %0, ptr %2, align 8, !tbaa !1402
  %3 = load ptr, ptr %2, align 8
  %4 = getelementptr inbounds nuw %"class.std::__shared_ptr.335", ptr %3, i32 0, i32 0
  %5 = load ptr, ptr %4, align 8, !tbaa !1404
  ret ptr %5
}

; Function Attrs: mustprogress nounwind uwtable
define linkonce_odr void @_ZN5arrow6StatusC2Ev(ptr noundef nonnull align 8 dereferenceable(8) %0) unnamed_addr #0 comdat align 2 {
  %2 = alloca ptr, align 8
  store ptr %0, ptr %2, align 8, !tbaa !129
  %3 = load ptr, ptr %2, align 8
  %4 = getelementptr inbounds nuw %"class.arrow::Status", ptr %3, i32 0, i32 0
  store ptr null, ptr %4, align 8, !tbaa !131
  ret void
}

; Function Attrs: mustprogress nounwind uwtable
define linkonce_odr noundef ptr @_ZNKSt19__shared_ptr_accessIN5arrow6ScalarELN9__gnu_cxx12_Lock_policyE2ELb0ELb0EE6_M_getEv(ptr noundef nonnull align 1 dereferenceable(1) %0) #0 comdat align 2 {
  %2 = alloca ptr, align 8
  store ptr %0, ptr %2, align 8, !tbaa !1400
  %3 = load ptr, ptr %2, align 8
  %4 = call noundef ptr @_ZNKSt12__shared_ptrIN5arrow6ScalarELN9__gnu_cxx12_Lock_policyE2EE3getEv(ptr noundef nonnull align 8 dereferenceable(16) %3) #20
  ret ptr %4
}

; Function Attrs: mustprogress nounwind uwtable
define linkonce_odr void @_ZN5arrow6Status2OKEv(ptr dead_on_unwind noalias writable sret(%"class.arrow::Status") align 8 %0) #0 comdat align 2 {
  %2 = alloca ptr, align 8
  store ptr %0, ptr %2, align 8
  call void @_ZN5arrow6StatusC2Ev(ptr noundef nonnull align 8 dereferenceable(8) %0) #20
  ret void
}

; Function Attrs: mustprogress nounwind uwtable
define linkonce_odr noundef nonnull align 8 dereferenceable(41) ptr @_ZNKSt19__shared_ptr_accessIN5arrow6ScalarELN9__gnu_cxx12_Lock_policyE2ELb0ELb0EEdeEv(ptr noundef nonnull align 1 dereferenceable(1) %0) #0 comdat align 2 {
  %2 = alloca ptr, align 8
  store ptr %0, ptr %2, align 8, !tbaa !1400
  %3 = load ptr, ptr %2, align 8
  br label %4

4:                                                ; preds = %1
  br label %5

5:                                                ; preds = %4
  br label %6

6:                                                ; preds = %5
  %7 = call noundef ptr @_ZNKSt19__shared_ptr_accessIN5arrow6ScalarELN9__gnu_cxx12_Lock_policyE2ELb0ELb0EE6_M_getEv(ptr noundef nonnull align 1 dereferenceable(1) %3) #20
  ret ptr %7
}

; Function Attrs: mustprogress nounwind uwtable
define linkonce_odr noundef nonnull align 8 dereferenceable(16) ptr @_ZNKSt6vectorISt10shared_ptrIN5arrow6ScalarEESaIS3_EEixEm(ptr noundef nonnull align 8 dereferenceable(24) %0, i64 noundef %1) #0 comdat align 2 {
  %3 = alloca ptr, align 8
  %4 = alloca i64, align 8
  store ptr %0, ptr %3, align 8, !tbaa !1396
  store i64 %1, ptr %4, align 8, !tbaa !43
  %5 = load ptr, ptr %3, align 8
  %6 = getelementptr inbounds nuw %"struct.std::_Vector_base.328", ptr %5, i32 0, i32 0
  %7 = getelementptr inbounds nuw %"struct.std::_Vector_base<std::shared_ptr<arrow::Scalar>, std::allocator<std::shared_ptr<arrow::Scalar>>>::_Vector_impl_data", ptr %6, i32 0, i32 0
  %8 = load ptr, ptr %7, align 8, !tbaa !1399
  %9 = load i64, ptr %4, align 8, !tbaa !43
  %10 = getelementptr inbounds nuw %"class.std::shared_ptr.334", ptr %8, i64 %9
  ret ptr %10
}

; Function Attrs: inlinehint mustprogress nounwind uwtable
define linkonce_odr noundef nonnull align 8 dereferenceable(92) ptr @_ZN5arrow8internal12checked_castIRKNS_17SparseUnionScalarERKNS_6ScalarEEET_OT0_(ptr noundef nonnull align 8 dereferenceable(41) %0) #5 comdat {
  %2 = alloca ptr, align 8
  store ptr %0, ptr %2, align 8, !tbaa !61
  %3 = load ptr, ptr %2, align 8, !tbaa !61
  ret ptr %3
}

; Function Attrs: mustprogress uwtable
define internal void @_ZN5arrow12_GLOBAL__N_119ScalarEqualsVisitor5VisitERKNS_17SparseUnionScalarE(ptr dead_on_unwind noalias writable sret(%"class.arrow::Status") align 8 %0, ptr noundef nonnull align 8 dereferenceable(34) %1, ptr noundef nonnull align 8 dereferenceable(92) %2) #1 align 2 {
  %4 = alloca ptr, align 8
  %5 = alloca ptr, align 8
  %6 = alloca ptr, align 8
  %7 = alloca ptr, align 8
  store ptr %0, ptr %4, align 8
  store ptr %1, ptr %5, align 8, !tbaa !1191
  store ptr %2, ptr %6, align 8, !tbaa !1316
  %8 = load ptr, ptr %5, align 8
  call void @llvm.lifetime.start.p0(i64 8, ptr %7) #20
  %9 = getelementptr inbounds nuw %"class.arrow::(anonymous namespace)::ScalarEqualsVisitor", ptr %8, i32 0, i32 0
  %10 = load ptr, ptr %9, align 8, !tbaa !1201
  %11 = call noundef nonnull align 8 dereferenceable(92) ptr @_ZN5arrow8internal12checked_castIRKNS_17SparseUnionScalarERKNS_6ScalarEEET_OT0_(ptr noundef nonnull align 8 dereferenceable(41) %10)
  store ptr %11, ptr %7, align 8, !tbaa !1316
  %12 = load ptr, ptr %6, align 8, !tbaa !1316
  %13 = getelementptr inbounds nuw %"struct.arrow::SparseUnionScalar", ptr %12, i32 0, i32 3
  %14 = load ptr, ptr %6, align 8, !tbaa !1316
  %15 = getelementptr inbounds nuw %"struct.arrow::SparseUnionScalar", ptr %14, i32 0, i32 4
  %16 = load i32, ptr %15, align 8, !tbaa !1318
  %17 = sext i32 %16 to i64
  %18 = call noundef nonnull align 8 dereferenceable(16) ptr @_ZNKSt6vectorISt10shared_ptrIN5arrow6ScalarEESaIS3_EEixEm(ptr noundef nonnull align 8 dereferenceable(24) %13, i64 noundef %17) #20
  %19 = call noundef nonnull align 8 dereferenceable(41) ptr @_ZNKSt19__shared_ptr_accessIN5arrow6ScalarELN9__gnu_cxx12_Lock_policyE2ELb0ELb0EEdeEv(ptr noundef nonnull align 1 dereferenceable(1) %18) #20
  %20 = load ptr, ptr %7, align 8, !tbaa !1316
  %21 = getelementptr inbounds nuw %"struct.arrow::SparseUnionScalar", ptr %20, i32 0, i32 3
  %22 = load ptr, ptr %7, align 8, !tbaa !1316
  %23 = getelementptr inbounds nuw %"struct.arrow::SparseUnionScalar", ptr %22, i32 0, i32 4
  %24 = load i32, ptr %23, align 8, !tbaa !1318
  %25 = sext i32 %24 to i64
  %26 = call noundef nonnull align 8 dereferenceable(16) ptr @_ZNKSt6vectorISt10shared_ptrIN5arrow6ScalarEESaIS3_EEixEm(ptr noundef nonnull align 8 dereferenceable(24) %21, i64 noundef %25) #20
  %27 = call noundef nonnull align 8 dereferenceable(41) ptr @_ZNKSt19__shared_ptr_accessIN5arrow6ScalarELN9__gnu_cxx12_Lock_policyE2ELb0ELb0EEdeEv(ptr noundef nonnull align 1 dereferenceable(1) %26) #20
  %28 = getelementptr inbounds nuw %"class.arrow::(anonymous namespace)::ScalarEqualsVisitor", ptr %8, i32 0, i32 1
  %29 = getelementptr inbounds nuw %"class.arrow::(anonymous namespace)::ScalarEqualsVisitor", ptr %8, i32 0, i32 2
  %30 = load i8, ptr %29, align 8, !tbaa !1194, !range !59, !noundef !60
  %31 = trunc i8 %30 to i1
  %32 = call noundef zeroext i1 @_ZN5arrow12_GLOBAL__N_112ScalarEqualsERKNS_6ScalarES3_RKNS_12EqualOptionsEb(ptr noundef nonnull align 8 dereferenceable(41) %19, ptr noundef nonnull align 8 dereferenceable(41) %27, ptr noundef nonnull align 8 dereferenceable(24) %28, i1 noundef zeroext %31)
  %33 = getelementptr inbounds nuw %"class.arrow::(anonymous namespace)::ScalarEqualsVisitor", ptr %8, i32 0, i32 3
  %34 = zext i1 %32 to i8
  store i8 %34, ptr %33, align 1, !tbaa !1196
  call void @_ZN5arrow6Status2OKEv(ptr dead_on_unwind writable sret(%"class.arrow::Status") align 8 %0)
  call void @llvm.lifetime.end.p0(i64 8, ptr %7) #20
  ret void
}