; Function Attrs: mustprogress uwtable
define internal fastcc void @_ZN5arrow12_GLOBAL__N_119ScalarEqualsVisitor5VisitERKNS_17SparseUnionScalarE(ptr dead_on_unwind noalias nonnull writable writeonly align 8 captures(none) initializes((0, 8)) %0, ptr noundef nonnull align 8 captures(none) dereferenceable(34) %1, ptr noundef nonnull readonly align 8 captures(none) dereferenceable(92) %2) unnamed_addr #1 align 2 {
  %4 = load ptr, ptr %1, align 8, !tbaa !1011
  %5 = getelementptr inbounds nuw i8, ptr %2, i64 64
  %6 = getelementptr inbounds nuw i8, ptr %2, i64 88
  %7 = load i32, ptr %6, align 8, !tbaa !1059
  %8 = sext i32 %7 to i64
  %9 = load ptr, ptr %5, align 8, !tbaa !1054
  %10 = getelementptr inbounds nuw %"class.std::shared_ptr.334", ptr %9, i64 %8
  %11 = load ptr, ptr %10, align 8, !tbaa !260
  %12 = getelementptr inbounds nuw i8, ptr %4, i64 64
  %13 = getelementptr inbounds nuw i8, ptr %4, i64 88
  %14 = load i32, ptr %13, align 8, !tbaa !1059
  %15 = sext i32 %14 to i64
  %16 = load ptr, ptr %12, align 8, !tbaa !1054
  %17 = getelementptr inbounds nuw %"class.std::shared_ptr.334", ptr %16, i64 %15
  %18 = load ptr, ptr %17, align 8, !tbaa !260
  %19 = getelementptr inbounds nuw i8, ptr %1, i64 8
  %20 = getelementptr inbounds nuw i8, ptr %1, i64 32
  %21 = load i8, ptr %20, align 8, !tbaa !117, !range !81, !noundef !82
  %22 = trunc nuw i8 %21 to i1
  %23 = tail call fastcc noundef zeroext i1 @_ZN5arrow12_GLOBAL__N_112ScalarEqualsERKNS_6ScalarES3_RKNS_12EqualOptionsEb(ptr noundef nonnull align 8 dereferenceable(41) %11, ptr noundef nonnull align 8 dereferenceable(41) %18, ptr noundef nonnull align 8 dereferenceable(24) %19, i1 noundef zeroext %22)
  %24 = getelementptr inbounds nuw i8, ptr %1, i64 33
  %25 = zext i1 %23 to i8
  store i8 %25, ptr %24, align 1, !tbaa !119
  store ptr null, ptr %0, align 8, !tbaa !93, !alias.scope !1066
  ret void
}